; Function Attrs: mustprogress uwtable
define void @_ZNK10open_spiel9gin_rummy13GinRummyState5CloneEv(ptr dead_on_unwind noalias nocapture writable writeonly sret(%"class.std::unique_ptr") align 8 %0, ptr noundef nonnull align 8 dereferenceable(528) %1) unnamed_addr #3 align 2 personality ptr @__gxx_personality_v0 {
  %3 = tail call noalias noundef nonnull dereferenceable(528) ptr @_Znwm(i64 noundef 528) #27
  invoke void @_ZN10open_spiel9gin_rummy13GinRummyStateC2ERKS1_(ptr noundef nonnull align 8 dereferenceable(528) %3, ptr noundef nonnull align 8 dereferenceable(528) %1)
          to label %4 unwind label %5

4:                                                ; preds = %2
  store ptr %3, ptr %0, align 8
  ret void

5:                                                ; preds = %2
  %6 = landingpad { ptr, i32 }
          cleanup
  tail call void @_ZdlPvm(ptr noundef nonnull %3, i64 noundef 528) #28
  resume { ptr, i32 } %6
}